; Function Attrs: mustprogress nofree norecurse nosync nounwind willreturn memory(read, inaccessiblemem: none) uwtable
define dso_local noundef range(i32 -1, 2) i32 @_ZNK4llvm9StringRef19compare_insensitiveES0_(ptr noundef nonnull readonly align 8 captures(none) dereferenceable(16) %0, ptr readonly captures(none) %1, i64 %2) local_unnamed_addr #0 align 2 {
  %4 = load ptr, ptr %0, align 8
  %5 = getelementptr inbounds nuw i8, ptr %0, i64 8
  %6 = load i64, ptr %5, align 8
  %.sroa.speculated = tail call i64 @llvm.umin.i64(i64 %2, i64 %6)
  %.not16.i = icmp eq i64 %.sroa.speculated, 0
  br i1 %.not16.i, label %_ZL17ascii_strncasecmpPKcS0_m.exit.thread, label %.lr.ph.i

7:                                                ; preds = %.lr.ph.i
  %8 = add nuw i64 %.01115.i, 1
  %exitcond.not.i = icmp eq i64 %8, %.sroa.speculated
  br i1 %exitcond.not.i, label %_ZL17ascii_strncasecmpPKcS0_m.exit.thread, label %.lr.ph.i, !llvm.loop !4

.lr.ph.i:                                         ; preds = %3, %7
  %.01115.i = phi i64 [ %8, %7 ], [ 0, %3 ]
  %9 = getelementptr inbounds i8, ptr %4, i64 %.01115.i
  %10 = load i8, ptr %9, align 1
  %11 = add i8 %10, -65
  %12 = icmp ult i8 %11, 26
  %13 = add nuw nsw i8 %10, 32
  %.0.i.i = select i1 %12, i8 %13, i8 %10
  %14 = getelementptr inbounds i8, ptr %1, i64 %.01115.i
  %15 = load i8, ptr %14, align 1
  %16 = add i8 %15, -65
  %17 = icmp ult i8 %16, 26
  %18 = add nuw nsw i8 %15, 32
  %.0.i14.i = select i1 %17, i8 %18, i8 %15
  %.not.i = icmp eq i8 %.0.i.i, %.0.i14.i
  br i1 %.not.i, label %7, label %_ZL17ascii_strncasecmpPKcS0_m.exit

_ZL17ascii_strncasecmpPKcS0_m.exit:               ; preds = %.lr.ph.i
  %19 = icmp ult i8 %.0.i.i, %.0.i14.i
  %20 = select i1 %19, i32 -1, i32 1
  br label %25

_ZL17ascii_strncasecmpPKcS0_m.exit.thread:        ; preds = %7, %3
  %21 = icmp eq i64 %6, %2
  br i1 %21, label %25, label %22

22:                                               ; preds = %_ZL17ascii_strncasecmpPKcS0_m.exit.thread
  %23 = icmp ult i64 %6, %2
  %24 = select i1 %23, i32 -1, i32 1
  br label %25

25:                                               ; preds = %_ZL17ascii_strncasecmpPKcS0_m.exit, %_ZL17ascii_strncasecmpPKcS0_m.exit.thread, %22
  %.0 = phi i32 [ %24, %22 ], [ %20, %_ZL17ascii_strncasecmpPKcS0_m.exit ], [ 0, %_ZL17ascii_strncasecmpPKcS0_m.exit.thread ]
  ret i32 %.0
}